; Function Attrs: nounwind uwtable
define hidden noundef zeroext i1 @X11_UpdateTextInputArea(ptr noundef readnone captures(none) %0, ptr noundef readonly captures(none) %1) local_unnamed_addr #0 {
  %3 = alloca %struct.XPoint, align 4
  %4 = getelementptr inbounds nuw i8, ptr %1, i64 392
  %5 = load ptr, ptr %4, align 8
  %.not = icmp eq ptr %5, null
  br i1 %.not, label %42, label %6

6:                                                ; preds = %2
  %7 = getelementptr inbounds nuw i8, ptr %5, i64 88
  %8 = load ptr, ptr %7, align 8
  %.not15 = icmp eq ptr %8, null
  br i1 %.not15, label %42, label %9

9:                                                ; preds = %6
  call void @llvm.lifetime.start.p0(i64 4, ptr nonnull %3) #9
  %10 = getelementptr inbounds nuw i8, ptr %1, i64 316
  %11 = load i32, ptr %10, align 4
  %12 = getelementptr inbounds nuw i8, ptr %1, i64 332
  %13 = load i32, ptr %12, align 4
  %14 = add nsw i32 %13, %11
  %15 = trunc i32 %14 to i16
  store i16 %15, ptr %3, align 4
  %16 = getelementptr inbounds nuw i8, ptr %1, i64 320
  %17 = load i32, ptr %16, align 4
  %18 = getelementptr inbounds nuw i8, ptr %1, i64 328
  %19 = load i32, ptr %18, align 4
  %20 = add nsw i32 %19, %17
  %21 = trunc i32 %20 to i16
  %22 = getelementptr inbounds nuw i8, ptr %3, i64 2
  store i16 %21, ptr %22, align 2
  %23 = getelementptr inbounds nuw i8, ptr %5, i64 548
  %24 = load i16, ptr %23, align 4
  %.not16 = icmp eq i16 %24, %15
  br i1 %.not16, label %25, label %30

25:                                               ; preds = %9
  %sext = shl i32 %20, 16
  %26 = ashr exact i32 %sext, 16
  %27 = getelementptr inbounds nuw i8, ptr %5, i64 550
  %28 = load i16, ptr %27, align 2
  %29 = sext i16 %28 to i32
  %.not17 = icmp eq i32 %26, %29
  br i1 %.not17, label %41, label %30

30:                                               ; preds = %25, %9
  %31 = load ptr, ptr @X11_XVaCreateNestedList, align 8
  %32 = call ptr (i32, ...) %31(i32 noundef 0, ptr noundef nonnull @.str.11, ptr noundef nonnull %3, ptr noundef null) #9
  %.not18 = icmp eq ptr %32, null
  br i1 %.not18, label %39, label %33

33:                                               ; preds = %30
  %34 = load ptr, ptr @X11_XSetICValues, align 8
  %35 = load ptr, ptr %7, align 8
  %36 = call ptr (ptr, ...) %34(ptr noundef %35, ptr noundef nonnull @.str.9, ptr noundef nonnull %32, ptr noundef null) #9
  %37 = load ptr, ptr @X11_XFree, align 8
  %38 = call i32 %37(ptr noundef nonnull %32) #9
  br label %39

39:                                               ; preds = %33, %30
  %40 = load i32, ptr %3, align 4
  store i32 %40, ptr %23, align 4
  br label %41

41:                                               ; preds = %39, %25
  call void @llvm.lifetime.end.p0(i64 4, ptr nonnull %3) #9
  br label %42

42:                                               ; preds = %41, %6, %2
  ret i1 true
}